-----BEGIN RSA PRIVATE KEY-----
Proc-Type: 4,ENCRYPTED
DEK-Info: AES-128-CBC,013AC85651E2BCBD809DCCB11957ED86

tJlbzMvkE8sqPIn4ppaLMxpwlZud2IaoQHC4cz+30fApjBfJsVRb+rUwxNEh2U7E
0e60aVLca1QlZ/fd9HJu5dcsMctA7A8PTbb5vklcdA6oy/Qqop0ysHC9hcLTtOul
WSgY0PRW4pP4kZ6/y23uegDDi0w4BPLU0fQasknSDRtDWC1D/jIsmGuME7XA4FzQ
9woyWVKmm8Grzon5M79ibRWUU67jPuQ4rMVkOKrl+ymOAFi7c9sV9qQQ2cpgKpHD
nRaREkljx0FdpgM28VWPmW1lbNKjOTyuj7s1Hdq7DN/ybyfjm4TtsmSK0xguoaZI
8GWzZJYyiVPqGhIp4c7ee1fszplVgK6wZQ46ztzXuFD9Xeh5NgmH9pDKqAH1PGS5
szyh1ypIPxYAxpkrFY4KvcCopbo5V0UENPE1wIetsn6dOH4iQuqnUgAWclIOfLqh
jIS5gPc93rVA+JPPTaXrQtTV34MpMpm7vBB+/dbBtIkfVLo1fzV/Knt3L67dBbnu
yvPjEhL8YIT84DticXYQmZBMTFRSma+YTbFS+bQHmboVh0erKIo+AcAVX8g+J6aE
4Jl6fMBBoQOxM3jNBg9zaenPBA4Zh3FfZHeAFpId+sr+2+WwYH9EUV7/DMOo7vQs
O+iE7kwBl3Zji8k3aLaZf+BAInpehL9WHy4VEPDYe25A4wg0juhywTasIBbzevUV
HR3XE6sFIwqVxScUVH+Yt1BlwdOlp1dOd2GsqofiiUDbHQdsRz2otx/S5/OlUIMj
SiwNmvATnWQZTblQO2huEoTvN1SEjzNqCXuZwpCdfSgIyMdSZrOVZLm4KlPlyt2O
-----END RSA PRIVATE KEY-----
Certificate:
    Data:
        Version: 3 (0x2)
        Serial Number: 4097 (0x1001)
    Signature Algorithm: sha256WithRSAEncryption
        Issuer: C=US, ST=Idaho, L=Boise, O=GoMommy, OU=GoMommy, CN=GoMommy/emailAddress=test@gomommy.com
        Validity
            Not Before: Jun  8 15:49:25 2022 GMT
            Not After : Jun  8 15:49:25 2023 GMT
        Subject: C=US, ST=Idaho, O=GoMommy, OU=GoMommy, CN=www.cnn.com/emailAddress=test@gomommy.com
        Subject Public Key Info:
            Public Key Algorithm: rsaEncryption
                Public-Key: (1024 bit)
                Modulus:
                    00:c3:c6:ca:17:f0:cc:23:61:ce:19:d0:5a:d4:93:
                    b2:91:a5:fb:15:21:67:c6:ab:22:db:33:5d:61:34:
                    40:05:6b:51:d7:a7:ed:ed:f3:e2:44:5f:35:26:04:
                    a9:f1:3a:da:46:12:54:fc:00:41:bf:cf:e2:21:e9:
                    07:37:49:8a:1e:e7:a1:d0:89:46:6a:50:03:c8:35:
                    d9:e5:ca:65:4c:59:cc:d5:b3:e7:42:52:2e:f7:ad:
                    dc:f7:f3:55:9d:ff:80:27:a8:74:8c:1f:c1:22:c7:
                    46:f9:b7:6f:51:b4:4e:c5:ba:aa:57:c2:ec:8f:dc:
                    14:44:55:49:86:99:ea:b8:93
                Exponent: 65537 (0x10001)
        X509v3 extensions:
            X509v3 Basic Constraints: 
                CA:FALSE
            Netscape Comment: 
                OpenSSL Generated Certificate
            X509v3 Subject Key Identifier: 
                3B:1D:02:B6:F1:E4:8A:25:09:70:E3:83:CE:2A:E7:30:F9:29:9E:A6
            X509v3 Authority Key Identifier: 
                keyid:E4:EC:24:61:B3:C6:00:8B:76:9A:52:4E:FF:EA:47:58:55:0D:19:F9

    Signature Algorithm: sha256WithRSAEncryption
         4a:5d:e9:73:88:e8:44:50:3f:96:94:4b:b8:4c:87:95:3a:2b:
         df:31:11:e3:f5:bb:cc:9c:9b:32:78:a0:cf:c4:61:d5:64:5d:
         e7:b8:c2:6b:0a:d2:e0:2e:9c:41:fd:46:bf:79:5e:83:49:69:
         b7:a5:97:e5:54:9b:fd:36:2c:20:8e:3c:a2:e9:cc:da:bb:00:
         63:0b:46:e7:d1:80:14:0a:95:b1:e4:02:2e:cd:0b:53:48:c8:
         ab:4c:1e:9a:e7:c6:71:02:7b:4c:38:38:8d:a9:0a:ae:0a:3a:
         44:55:09:3d:71:26:bd:18:b7:d6:3d:23:15:61:63:a1:02:45:
         0d:44:62:6e:5d:da:47:9c:7b:e0:f3:ae:92:a2:fd:80:48:8d:
         82:ed:84:50:de:75:f4:3d:2a:64:32:c1:cd:53:f7:e0:1f:cc:
         94:c7:d2:12:05:8b:7d:5d:e8:cb:f9:cf:5e:35:43:5d:bf:f6:
         af:a0:4b:a4:c2:4c:51:5e:27:4f:db:93:8d:9c:c5:ed:bf:70:
         01:e2:81:1f:12:12:a4:d5:9f:44:a1:11:e6:b3:f4:a1:f9:04:
         01:45:fe:b3:fb:35:76:06:4a:2f:c0:59:4d:1d:5b:b9:9f:a2:
         93:20:8f:a4:96:39:cb:f3:87:b9:28:c5:f2:71:71:d9:e0:dd:
         d4:89:83:76
-----BEGIN CERTIFICATE-----
MIIDcDCCAligAwIBAgICEAEwDQYJKoZIhvcNAQELBQAwgYQxCzAJBgNVBAYTAlVT
MQ4wDAYDVQQIDAVJZGFobzEOMAwGA1UEBwwFQm9pc2UxEDAOBgNVBAoMB0dvTW9t
bXkxEDAOBgNVBAsMB0dvTW9tbXkxEDAOBgNVBAMMB0dvTW9tbXkxHzAdBgkqhkiG
9w0BCQEWEHRlc3RAZ29tb21teS5jb20wHhcNMjIwNjA4MTU0OTI1WhcNMjMwNjA4
MTU0OTI1WjB4MQswCQYDVQQGEwJVUzEOMAwGA1UECAwFSWRhaG8xEDAOBgNVBAoM
B0dvTW9tbXkxEDAOBgNVBAsMB0dvTW9tbXkxFDASBgNVBAMMC3d3dy5jbm4uY29t
MR8wHQYJKoZIhvcNAQkBFhB0ZXN0QGdvbW9tbXkuY29tMIGfMA0GCSqGSIb3DQEB
AQUAA4GNADCBiQKBgQDDxsoX8MwjYc4Z0FrUk7KRpfsVIWfGqyLbM11hNEAFa1HX
p+3t8+JEXzUmBKnxOtpGElT8AEG/z+Ih6Qc3SYoe56HQiUZqUAPINdnlymVMWczV
s+dCUi73rdz381Wd/4AnqHSMH8Eix0b5t29RtE7FuqpXwuyP3BREVUmGmeq4kwID
AQABo3sweTAJBgNVHRMEAjAAMCwGCWCGSAGG+EIBDQQfFh1PcGVuU1NMIEdlbmVy
YXRlZCBDZXJ0aWZpY2F0ZTAdBgNVHQ4EFgQUOx0CtvHkiiUJcOODzirnMPkpnqYw
HwYDVR0jBBgwFoAU5OwkYbPGAIt2mlJO/+pHWFUNGfkwDQYJKoZIhvcNAQELBQAD
ggEBAEpd6XOI6ERQP5aUS7hMh5U6K98xEeP1u8ycmzJ4oM/EYdVkXee4wmsK0uAu
nEH9Rr95XoNJabell+VUm/02LCCOPKLpzNq7AGMLRufRgBQKlbHkAi7NC1NIyKtM
HprnxnECe0w4OI2pCq4KOkRVCT1xJr0Yt9Y9IxVhY6ECRQ1EYm5d2kece+DzrpKi
/YBIjYLthFDedfQ9KmQywc1T9+AfzJTH0hIFi31d6Mv5z141Q12/9q+gS6TCTFFe
J0/bk42cxe2/cAHigR8SEqTVn0ShEeaz9KH5BAFF/rP7NXYGSi/AWU0dW7mfopMg
j6SWOcvzh7koxfJxcdng3dSJg3Y=
-----END CERTIFICATE-----
