-----BEGIN RSA PRIVATE KEY-----
Proc-Type: 4,ENCRYPTED
DEK-Info: AES-128-CBC,B4B70859E6AF6E15027FA0C375979131

Ay0M2ytVskRTnkBKSGMcXNIEWq6EPlgtoOwvyG8FgL3CGn7O02RoyDVZ6M1SbWbF
gPCehBfjVV2g7bThG0TsPjCTCIgKrIgdxB3JUkuTJqZb+/uAeJO+s3Y+ijCI2wuc
d/izXlnl7yjZgornxf5t4xzGYq5nbmHVhQq4DnYC1mZQw3SNyhm0TBAU+7E7R0/f
faEUPS/ivUcVEXgzZGa98bKhS/GzfTeGnfemgw63Xy0+laev34oLJ9utrjESi49c
z00smMinaMrFlBZKkkyK34PkSMoV5ml6IzWuPbr2kibBN9dnIRL8MD2+TCWlvtAS
gS+qYvYWoQksUFs9Ayar71sYz2JeM/wPKt+VCeTYFGAfZ4wp3MM7Q6KQe+1NXgG7
XN+moULquQqF/Vc3GQCYzQivuaHLNXFUh1yV44J/Et26aLcKseGFw3qlXWY5O09F
SdhVrTYnEJeb7IYAut2VdlxpRtU8otlF5Q+8CUvZtm7UrDf1MYCHhuX6eU29Kh61
vdqPkSDlKWMZxwyTHdjtKzeFizaOmi//tYGfxnLJjFMlaTvh8/dcjyTGo9maojb+
ooTDtrQ1ZkI7Ow8nKB9WdnXhsGchACwZOIV0Zmv1G7l6s5HRtjm8+6Ma6GOGFAvz
qBP2ubEqih4c4q8Iole3Sxig9Dsh/mrxE3ZwYzENxtTb+2ldsew/0lzqmAxJdC95
QyM0O5mV6f838VscwbvjpNDKweYUUFWd6mRLEoAJ5qiENkkbAjGUxekgrtPFQ45W
XMPyZ5ZgIa8z/a8NC178ZiaOcZs2CXjbSmNU5e4ErdLzHuAZex0T+rjjrPuJJ6Qq
-----END RSA PRIVATE KEY-----
Certificate:
    Data:
        Version: 3 (0x2)
        Serial Number: 4097 (0x1001)
    Signature Algorithm: sha256WithRSAEncryption
        Issuer: C=US, ST=Idaho, L=Boise, O=GoMommy, OU=GoMommy, CN=GoMommy/emailAddress=admin@gomommy.com
        Validity
            Not Before: Apr 19 00:19:12 2022 GMT
            Not After : Apr 19 00:19:12 2023 GMT
        Subject: C=US, ST=Idaho, O=GoMommy, OU=GoMommy, CN=www.cnn.com/emailAddress=admin@cnn.com
        Subject Public Key Info:
            Public Key Algorithm: rsaEncryption
                Public-Key: (1024 bit)
                Modulus:
                    00:bd:d1:ab:4d:81:ed:c5:b3:9b:78:7c:b5:cd:66:
                    3e:ba:09:25:16:a7:ec:de:53:5b:09:ad:71:87:08:
                    61:76:4c:aa:f3:03:08:47:3d:4d:79:a1:e8:cd:30:
                    4e:1c:62:3f:36:22:1f:a0:2f:1c:ca:43:e2:2b:ea:
                    c7:96:c6:ee:87:4e:23:ac:c3:df:80:41:3c:70:78:
                    5a:8d:40:e9:16:40:98:79:54:54:43:23:c2:09:c5:
                    d1:95:50:3e:1f:dc:07:f1:47:49:fe:ab:5b:ef:14:
                    cb:ae:27:55:61:18:a0:2a:eb:7b:18:9e:86:0c:92:
                    3a:02:b2:0f:63:c2:2b:43:41
                Exponent: 65537 (0x10001)
        X509v3 extensions:
            X509v3 Basic Constraints: 
                CA:FALSE
            Netscape Comment: 
                OpenSSL Generated Certificate
            X509v3 Subject Key Identifier: 
                CA:76:D7:A5:9E:6D:D7:6E:51:65:03:1D:3C:EE:9A:E7:AD:1E:3B:D7
            X509v3 Authority Key Identifier: 
                keyid:20:CF:AB:C5:E5:23:9C:EE:10:8E:24:E8:7F:0A:05:05:6A:55:C7:84

    Signature Algorithm: sha256WithRSAEncryption
         7e:9c:80:8d:7f:65:1a:6c:14:71:5d:1d:92:c7:ec:54:df:1d:
         6a:3d:be:9b:c8:c2:de:d8:82:40:af:f6:05:5b:21:9b:7b:dc:
         9d:d7:df:ea:a7:b7:35:91:3f:e4:38:d4:a0:ce:4a:15:47:06:
         fe:fd:9d:c0:40:f0:22:19:e2:b5:ec:3d:85:85:28:57:bf:6b:
         48:ae:95:ab:b0:82:1e:7f:b7:f2:c4:8c:ae:13:d8:a5:b9:1b:
         33:92:11:a3:ec:aa:f9:14:75:de:a3:76:c0:e9:0c:ce:37:1e:
         60:f2:de:6b:d4:18:c2:df:1c:3d:b7:cf:93:d2:c2:fd:97:86:
         d2:2e:29:6b:90:82:6e:a9:e2:92:21:03:cf:ca:6c:6f:c0:ab:
         9c:40:da:21:66:60:f4:77:8e:b3:ef:b0:0e:d9:2a:63:38:83:
         d1:0a:47:03:7b:42:1d:99:13:44:32:ca:a9:54:05:8d:17:0f:
         8f:30:5b:d8:ae:d2:30:07:38:3e:36:17:76:9a:09:5f:cb:d3:
         48:91:70:35:d5:0a:bd:9d:3c:27:b8:c7:4d:eb:76:0b:1b:ac:
         70:3f:40:b8:69:11:55:a7:a9:61:b2:6e:c2:e0:f9:17:7c:3e:
         aa:66:01:71:3f:29:1e:21:96:12:c5:c3:8c:a9:3e:d7:83:b2:
         58:ce:df:39
-----BEGIN CERTIFICATE-----
MIIDbjCCAlagAwIBAgICEAEwDQYJKoZIhvcNAQELBQAwgYUxCzAJBgNVBAYTAlVT
MQ4wDAYDVQQIDAVJZGFobzEOMAwGA1UEBwwFQm9pc2UxEDAOBgNVBAoMB0dvTW9t
bXkxEDAOBgNVBAsMB0dvTW9tbXkxEDAOBgNVBAMMB0dvTW9tbXkxIDAeBgkqhkiG
9w0BCQEWEWFkbWluQGdvbW9tbXkuY29tMB4XDTIyMDQxOTAwMTkxMloXDTIzMDQx
OTAwMTkxMlowdTELMAkGA1UEBhMCVVMxDjAMBgNVBAgMBUlkYWhvMRAwDgYDVQQK
DAdHb01vbW15MRAwDgYDVQQLDAdHb01vbW15MRQwEgYDVQQDDAt3d3cuY25uLmNv
bTEcMBoGCSqGSIb3DQEJARYNYWRtaW5AY25uLmNvbTCBnzANBgkqhkiG9w0BAQEF
AAOBjQAwgYkCgYEAvdGrTYHtxbObeHy1zWY+ugklFqfs3lNbCa1xhwhhdkyq8wMI
Rz1NeaHozTBOHGI/NiIfoC8cykPiK+rHlsbuh04jrMPfgEE8cHhajUDpFkCYeVRU
QyPCCcXRlVA+H9wH8UdJ/qtb7xTLridVYRigKut7GJ6GDJI6ArIPY8IrQ0ECAwEA
AaN7MHkwCQYDVR0TBAIwADAsBglghkgBhvhCAQ0EHxYdT3BlblNTTCBHZW5lcmF0
ZWQgQ2VydGlmaWNhdGUwHQYDVR0OBBYEFMp216WebdduUWUDHTzumuetHjvXMB8G
A1UdIwQYMBaAFCDPq8XlI5zuEI4k6H8KBQVqVceEMA0GCSqGSIb3DQEBCwUAA4IB
AQB+nICNf2UabBRxXR2Sx+xU3x1qPb6byMLe2IJAr/YFWyGbe9yd19/qp7c1kT/k
ONSgzkoVRwb+/Z3AQPAiGeK17D2FhShXv2tIrpWrsIIef7fyxIyuE9iluRszkhGj
7Kr5FHXeo3bA6QzONx5g8t5r1BjC3xw9t8+T0sL9l4bSLilrkIJuqeKSIQPPymxv
wKucQNohZmD0d46z77AO2SpjOIPRCkcDe0IdmRNEMsqpVAWNFw+PMFvYrtIwBzg+
Nhd2mglfy9NIkXA11Qq9nTwnuMdN63YLG6xwP0C4aRFVp6lhsm7C4PkXfD6qZgFx
PykeIZYSxcOMqT7Xg7JYzt85
-----END CERTIFICATE-----
