-----BEGIN RSA PRIVATE KEY-----
Proc-Type: 4,ENCRYPTED
DEK-Info: AES-128-CBC,A660046E31661A6A1CE02F417B59E1BB

F9jShoy+vtJukx5kWqTBAAdjPEqvrun8X7OoMuH3vF59Kw+TifMhX+4U7LbIduG/
2B0NMDy+hxA+UVBdzY5WpPbK/KjSHvLemWPG1F72MY3C+Usiiw2O6Jitg+bKF9A1
wutcg8G+Yyi5ZFkVyCmVrjlOFdCD18tKNNbc0JQJnu/+onEuLJCEossK/pfqGfD+
1UEdqKk9BHvWMKhr8MLhFxGOfxuXF1lMrUAFxAoE9Wcp3U4RKfcMVCb45bgaOyi8
lMl/6ZfKaj92ob1fFadZ2SXaGRGMl0m8ENbvYOmBOlFnytSrEvbG1Us2Gwp9NTl6
N8lyz2Y+OtOnr0yMqCEzIPoCdtN1IqYszj5MxIqDwdelwyeiZD82ZiBuA99PHtEU
c4l8Vfah5+6W3X4S8Aek3aDBWjUlP5nsVniTYWSD6WMT7ToQMtWnOrYFe/E0jmvI
C8ws2uI6bX3Pmm+/LdhI+DIXJDdG6aZbBYUfTbB4YllJUp1b1Qm0hWnDletnCaUu
fZvaazaowUGUwbRn3pY5hiNYP8vuhdsw09VO0uBbR2orL41QnMpdKsQYHs0hiB0e
Uf/gcNC6ZhOBA8ppLmT0Wwzy4agVHT54osFRyOhCsFVsJwKkvqJ1V2kb3bHAVwzO
Z757NRPqlP+i2kSz8zTtFVPaR137MwQ0hU6ShUOmNyiXEfBMo13FnqTcrYAo6pVg
nq/jHz4O1T6KR4iUh+UJRxKbxKY+fxAn1LsavzKHtQzWvtd3GmfVZT6WMgeW5wBK
oqS09PChSXGWGFwvk9UorQN2xu3iOkaQqiK8zuYigxeRGuzbSEUTW7lL9hNiirhb
-----END RSA PRIVATE KEY-----
Certificate:
    Data:
        Version: 3 (0x2)
        Serial Number: 4096 (0x1000)
    Signature Algorithm: sha256WithRSAEncryption
        Issuer: C=US, ST=Idaho, L=Boise, O=GoMommy, OU=GoMommy, CN=GoMommy/emailAddress=test@gomommy.com
        Validity
            Not Before: Jun  8 15:30:42 2022 GMT
            Not After : Jun  8 15:30:42 2023 GMT
        Subject: C=US, ST=Idaho, O=GoMommy, OU=GoMommy, CN=fakenews.com/emailAddress=test@gomommy.com
        Subject Public Key Info:
            Public Key Algorithm: rsaEncryption
                Public-Key: (1024 bit)
                Modulus:
                    00:c3:06:13:92:ec:71:1e:46:50:3c:c9:8f:25:28:
                    ec:7a:ff:29:4e:25:54:02:b7:47:fe:90:ec:d0:cf:
                    58:2b:7c:2d:d5:f1:29:42:c4:01:6d:0c:99:07:a7:
                    4a:e6:71:88:10:1c:7d:28:62:31:bd:80:71:84:af:
                    a0:5f:86:88:03:b2:d5:10:de:1f:db:1a:34:93:32:
                    1f:a8:ea:12:99:11:c4:1a:d9:98:6c:1a:2f:55:4a:
                    fd:e8:61:a6:bc:10:fe:73:19:47:ff:98:58:cd:2e:
                    ca:1d:97:0d:c3:b8:8f:69:46:85:22:01:04:35:75:
                    af:08:21:eb:06:52:e3:fd:69
                Exponent: 65537 (0x10001)
        X509v3 extensions:
            X509v3 Basic Constraints: 
                CA:FALSE
            Netscape Comment: 
                OpenSSL Generated Certificate
            X509v3 Subject Key Identifier: 
                0F:96:E9:43:D7:AD:74:E1:F4:BC:80:1C:37:0F:22:13:69:F5:C1:27
            X509v3 Authority Key Identifier: 
                keyid:E4:EC:24:61:B3:C6:00:8B:76:9A:52:4E:FF:EA:47:58:55:0D:19:F9

    Signature Algorithm: sha256WithRSAEncryption
         6a:df:c9:bd:ca:9c:70:b3:4a:cd:e9:91:a8:b5:4c:de:f5:2e:
         41:6b:15:f8:7e:67:a4:04:cb:bb:98:44:b3:0d:58:57:b1:0e:
         e1:3e:c1:47:ce:f4:a1:fb:74:30:9b:f1:10:f4:cd:9c:a0:67:
         d9:c6:af:7f:41:b6:87:40:c0:d4:3a:7c:0c:24:a7:aa:c5:5e:
         f8:e8:00:32:35:f2:19:4c:67:a8:91:b5:c6:fe:f9:7b:6d:9e:
         ff:12:5a:4b:3c:bb:43:5b:f7:09:84:c7:44:e2:90:80:81:d5:
         dc:cc:42:9a:3b:44:9b:bf:0b:7f:41:3f:26:98:6c:ce:3a:b6:
         3d:aa:a4:61:ba:3b:1a:9c:ad:dd:a4:bb:c7:17:d9:a4:5d:f2:
         69:ad:17:50:17:ef:1f:37:ef:71:7a:c5:de:e7:96:43:07:77:
         ec:03:0a:9e:3b:67:a9:71:8f:1d:f1:5c:0d:f7:d5:23:06:75:
         76:ac:43:bc:d8:65:82:44:49:f8:ee:9a:2c:2a:89:75:be:69:
         dc:5f:dd:04:2e:4c:4b:80:77:a8:76:ff:57:51:01:f5:43:82:
         77:5b:1b:e3:c9:0d:6f:44:88:0a:46:f6:98:3b:74:7c:fc:0e:
         3e:f5:73:cb:4f:2b:80:c4:a6:10:a7:55:87:59:a9:40:7e:ac:
         f7:20:6a:e0
-----BEGIN CERTIFICATE-----
MIIDcTCCAlmgAwIBAgICEAAwDQYJKoZIhvcNAQELBQAwgYQxCzAJBgNVBAYTAlVT
MQ4wDAYDVQQIDAVJZGFobzEOMAwGA1UEBwwFQm9pc2UxEDAOBgNVBAoMB0dvTW9t
bXkxEDAOBgNVBAsMB0dvTW9tbXkxEDAOBgNVBAMMB0dvTW9tbXkxHzAdBgkqhkiG
9w0BCQEWEHRlc3RAZ29tb21teS5jb20wHhcNMjIwNjA4MTUzMDQyWhcNMjMwNjA4
MTUzMDQyWjB5MQswCQYDVQQGEwJVUzEOMAwGA1UECAwFSWRhaG8xEDAOBgNVBAoM
B0dvTW9tbXkxEDAOBgNVBAsMB0dvTW9tbXkxFTATBgNVBAMMDGZha2VuZXdzLmNv
bTEfMB0GCSqGSIb3DQEJARYQdGVzdEBnb21vbW15LmNvbTCBnzANBgkqhkiG9w0B
AQEFAAOBjQAwgYkCgYEAwwYTkuxxHkZQPMmPJSjsev8pTiVUArdH/pDs0M9YK3wt
1fEpQsQBbQyZB6dK5nGIEBx9KGIxvYBxhK+gX4aIA7LVEN4f2xo0kzIfqOoSmRHE
GtmYbBovVUr96GGmvBD+cxlH/5hYzS7KHZcNw7iPaUaFIgEENXWvCCHrBlLj/WkC
AwEAAaN7MHkwCQYDVR0TBAIwADAsBglghkgBhvhCAQ0EHxYdT3BlblNTTCBHZW5l
cmF0ZWQgQ2VydGlmaWNhdGUwHQYDVR0OBBYEFA+W6UPXrXTh9LyAHDcPIhNp9cEn
MB8GA1UdIwQYMBaAFOTsJGGzxgCLdppSTv/qR1hVDRn5MA0GCSqGSIb3DQEBCwUA
A4IBAQBq38m9ypxws0rN6ZGotUze9S5BaxX4fmekBMu7mESzDVhXsQ7hPsFHzvSh
+3Qwm/EQ9M2coGfZxq9/QbaHQMDUOnwMJKeqxV746AAyNfIZTGeokbXG/vl7bZ7/
ElpLPLtDW/cJhMdE4pCAgdXczEKaO0Sbvwt/QT8mmGzOOrY9qqRhujsanK3dpLvH
F9mkXfJprRdQF+8fN+9xesXe55ZDB3fsAwqeO2epcY8d8VwN99UjBnV2rEO82GWC
REn47posKol1vmncX90ELkxLgHeodv9XUQH1Q4J3WxvjyQ1vRIgKRvaYO3R8/A4+
9XPLTyuAxKYQp1WHWalAfqz3IGrg
-----END CERTIFICATE-----
