-----BEGIN RSA PRIVATE KEY-----
Proc-Type: 4,ENCRYPTED
DEK-Info: AES-128-CBC,E80580548F09164D093A4B674C537825

Qxi+xd8IUjn7Tt1H5yzRCHa3QKxFXN8aGmAo6LH4KzDtRGodci6h5FOhVhjoLiHl
RtCB76n7Y70k2OG7ZFWVeHL2OZrIYENUDiHu97bZjBKDUb1TnyEqcqSjZ8JNvibF
eKR98RiGuA+CRM1L3qM4DNR4m2fkUVKsio0LD/hxQb3Z7ld7LJw8UNYJDHaduAeV
h0pJth1gACrKJtDUp7BUuLJHd7Dez5MJjHB1v+NN+8RJLewde9FRslm4TfcPsOB5
3agyV1gTCw3Lo8TflQO7C8l2+3K/aacx5EGAhkTwrddDJLFbotDSawoZ9O88MMOq
8D2uwBmUQZ3WFioVgcfEGWEnf8ZpRD4/qICYyDU6WrG5imJa5sk/9Y+X2JtYwASk
5cO0Fo3gn8p1qUmaDRT5OgjUkSTL/aspYT0yQCc5pe1Ac0Kox1BN+ncUPWSp5NZi
kVlmpDxyp0FjrWYUFl+ul7prsFJTrMntD60aCh8k1um/BmgX4CZMuD8TuZWvYAOf
dSuQ+ULaQPiSwsLzzIVHdtmOkBbC16UNwzXFkpCKIBizQCs0uuWou0W7gXBUv+XE
dylkwtHYfo+WvyoSjY/14p5Nb6x2KgkZ0MWccLT7pARUaTI5m++sJKWGyuJKUBKf
P4FYRRznxg0JHMReo106WzxUyaBcLVHEW9mefhFM6CG31xQy5s5fp+WpUPTDvs34
WKihr7eW5VoDUeXdVynQN7bn8hjSluaEJ4URei39zLSco3IuRZblipvi8bqTSKi1
YVUmlyb7v3e63C6xdLFFsnxB6yaBzeDrZ9s7+LOXOxmh0qyw3j9tJVVkZJ0XYWt7
-----END RSA PRIVATE KEY-----
Certificate:
    Data:
        Version: 3 (0x2)
        Serial Number: 4096 (0x1000)
    Signature Algorithm: sha256WithRSAEncryption
        Issuer: C=US, ST=Idaho, L=Boise, O=GoMommy, OU=GoMommy, CN=GoMommy/emailAddress=admin@gomommy.com
        Validity
            Not Before: Apr 18 23:35:59 2022 GMT
            Not After : Apr 18 23:35:59 2023 GMT
        Subject: C=US, ST=Idaho, O=GoMommy, OU=GoMommy, CN=fakenews.com/emailAddress=admin@fakenews.com
        Subject Public Key Info:
            Public Key Algorithm: rsaEncryption
                Public-Key: (1024 bit)
                Modulus:
                    00:bb:ad:44:92:79:8f:69:73:f2:e9:2c:7d:1a:35:
                    e5:d5:f7:09:73:2d:50:f4:10:a7:2d:d2:c6:9f:f8:
                    47:63:bf:a9:70:e2:82:6f:3f:df:15:2c:3d:ac:2a:
                    54:51:d3:05:18:2f:20:b6:7b:34:24:3e:c9:7f:91:
                    80:c0:b0:83:3c:bf:05:51:6d:b0:ab:1e:8e:7f:2c:
                    db:d2:95:bf:ab:cf:7e:c8:0d:18:41:2b:2c:8e:ff:
                    e0:ed:05:32:49:61:81:d3:f5:ea:d8:f3:63:32:23:
                    9c:c8:b2:98:81:c4:28:47:5b:a0:22:2f:03:16:61:
                    33:af:cb:3c:6e:21:3d:ec:03
                Exponent: 65537 (0x10001)
        X509v3 extensions:
            X509v3 Basic Constraints: 
                CA:FALSE
            Netscape Comment: 
                OpenSSL Generated Certificate
            X509v3 Subject Key Identifier: 
                3E:0A:68:B4:62:30:86:1B:C5:72:A8:B1:E4:F0:C0:4B:1A:82:D0:F4
            X509v3 Authority Key Identifier: 
                keyid:20:CF:AB:C5:E5:23:9C:EE:10:8E:24:E8:7F:0A:05:05:6A:55:C7:84

    Signature Algorithm: sha256WithRSAEncryption
         90:cb:97:d4:f7:8c:e8:53:c3:a5:50:8e:21:87:07:fd:43:8d:
         01:c4:2a:e5:bf:54:73:63:83:19:6d:51:30:39:82:d2:8f:a9:
         00:46:b3:3d:67:03:fa:a6:62:63:3d:32:b5:04:41:db:56:f9:
         69:c3:9b:a5:ac:a1:52:29:56:6f:66:24:a3:ae:41:6c:b2:36:
         5e:0f:89:12:88:56:76:41:c7:9d:d3:58:53:f4:6b:d4:71:f5:
         29:06:64:56:17:b3:66:53:b4:28:e5:00:cf:1f:de:e0:e9:06:
         cf:67:63:48:ac:e6:29:15:ff:7b:04:ba:57:e8:2b:33:02:75:
         9a:8f:4d:f1:be:bd:92:e2:5b:61:71:ae:44:83:4d:95:92:c7:
         d4:64:c6:6f:23:4b:e0:e3:83:a4:5f:cb:d4:0b:84:be:1c:b4:
         bc:8c:03:bc:17:6f:53:c1:22:4e:a6:4f:17:7e:0d:b4:45:27:
         0a:c0:63:0f:75:64:2f:6e:98:8b:e8:74:0c:fd:cb:21:50:c4:
         51:f7:b8:a0:4d:35:e0:5c:27:1e:95:ba:70:8e:87:94:11:f7:
         bb:cd:7e:98:80:13:a0:5d:5a:e4:eb:53:18:be:2e:cd:88:36:
         29:02:f7:cb:98:0c:7f:7a:6f:3c:5d:a3:75:c1:f2:61:c9:10:
         66:e5:cf:79
-----BEGIN CERTIFICATE-----
MIIDdDCCAlygAwIBAgICEAAwDQYJKoZIhvcNAQELBQAwgYUxCzAJBgNVBAYTAlVT
MQ4wDAYDVQQIDAVJZGFobzEOMAwGA1UEBwwFQm9pc2UxEDAOBgNVBAoMB0dvTW9t
bXkxEDAOBgNVBAsMB0dvTW9tbXkxEDAOBgNVBAMMB0dvTW9tbXkxIDAeBgkqhkiG
9w0BCQEWEWFkbWluQGdvbW9tbXkuY29tMB4XDTIyMDQxODIzMzU1OVoXDTIzMDQx
ODIzMzU1OVowezELMAkGA1UEBhMCVVMxDjAMBgNVBAgMBUlkYWhvMRAwDgYDVQQK
DAdHb01vbW15MRAwDgYDVQQLDAdHb01vbW15MRUwEwYDVQQDDAxmYWtlbmV3cy5j
b20xITAfBgkqhkiG9w0BCQEWEmFkbWluQGZha2VuZXdzLmNvbTCBnzANBgkqhkiG
9w0BAQEFAAOBjQAwgYkCgYEAu61EknmPaXPy6Sx9GjXl1fcJcy1Q9BCnLdLGn/hH
Y7+pcOKCbz/fFSw9rCpUUdMFGC8gtns0JD7Jf5GAwLCDPL8FUW2wqx6Ofyzb0pW/
q89+yA0YQSssjv/g7QUySWGB0/Xq2PNjMiOcyLKYgcQoR1ugIi8DFmEzr8s8biE9
7AMCAwEAAaN7MHkwCQYDVR0TBAIwADAsBglghkgBhvhCAQ0EHxYdT3BlblNTTCBH
ZW5lcmF0ZWQgQ2VydGlmaWNhdGUwHQYDVR0OBBYEFD4KaLRiMIYbxXKoseTwwEsa
gtD0MB8GA1UdIwQYMBaAFCDPq8XlI5zuEI4k6H8KBQVqVceEMA0GCSqGSIb3DQEB
CwUAA4IBAQCQy5fU94zoU8OlUI4hhwf9Q40BxCrlv1RzY4MZbVEwOYLSj6kARrM9
ZwP6pmJjPTK1BEHbVvlpw5ulrKFSKVZvZiSjrkFssjZeD4kSiFZ2Qced01hT9GvU
cfUpBmRWF7NmU7Qo5QDPH97g6QbPZ2NIrOYpFf97BLpX6CszAnWaj03xvr2S4lth
ca5Eg02VksfUZMZvI0vg44OkX8vUC4S+HLS8jAO8F29TwSJOpk8Xfg20RScKwGMP
dWQvbpiL6HQM/cshUMRR97igTTXgXCcelbpwjoeUEfe7zX6YgBOgXVrk61MYvi7N
iDYpAvfLmAx/em88XaN1wfJhyRBm5c95
-----END CERTIFICATE-----
